target datalayout = "e-m:e-p270:32:32-p271:32:32-p272:64:64-i64:64-i128:128-f80:128-n8:16:32:64-S128"
target triple = "x86_64-pc-linux-gnu"

; Function Attrs: nounwind uwtable
define internal i32 @sse4_c(ptr noundef %0, ptr noundef %1, ptr noundef %2, i64 noundef %3, i32 noundef %4) #2 {
  %6 = alloca ptr, align 8
  %7 = alloca ptr, align 8
  %8 = alloca ptr, align 8
  %9 = alloca i64, align 8
  %10 = alloca i32, align 4
  %11 = alloca i32, align 4
  %12 = alloca i32, align 4
  %13 = alloca ptr, align 8
  store ptr %0, ptr %6, align 8, !tbaa !22
  store ptr %1, ptr %7, align 8, !tbaa !24
  store ptr %2, ptr %8, align 8, !tbaa !24
  store i64 %3, ptr %9, align 8, !tbaa !26
  store i32 %4, ptr %10, align 4, !tbaa !11
  call void @llvm.lifetime.start.p0(i64 4, ptr %11) #9
  store i32 0, ptr %11, align 4, !tbaa !11
  call void @llvm.lifetime.start.p0(i64 4, ptr %12) #9
  call void @llvm.lifetime.start.p0(i64 8, ptr %13) #9
  store ptr getelementptr inbounds (i32, ptr @ff_square_tab, i64 256), ptr %13, align 8, !tbaa !83
  store i32 0, ptr %12, align 4, !tbaa !11
  br label %14

14:                                               ; preds = %85, %5
  %15 = load i32, ptr %12, align 4, !tbaa !11
  %16 = load i32, ptr %10, align 4, !tbaa !11
  %17 = icmp slt i32 %15, %16
  br i1 %17, label %18, label %88

18:                                               ; preds = %14
  %19 = load ptr, ptr %13, align 8, !tbaa !83
  %20 = load ptr, ptr %7, align 8, !tbaa !24
  %21 = getelementptr inbounds i8, ptr %20, i64 0
  %22 = load i8, ptr %21, align 1, !tbaa !36
  %23 = zext i8 %22 to i32
  %24 = load ptr, ptr %8, align 8, !tbaa !24
  %25 = getelementptr inbounds i8, ptr %24, i64 0
  %26 = load i8, ptr %25, align 1, !tbaa !36
  %27 = zext i8 %26 to i32
  %28 = sub nsw i32 %23, %27
  %29 = sext i32 %28 to i64
  %30 = getelementptr inbounds i32, ptr %19, i64 %29
  %31 = load i32, ptr %30, align 4, !tbaa !11
  %32 = load i32, ptr %11, align 4, !tbaa !11
  %33 = add i32 %32, %31
  store i32 %33, ptr %11, align 4, !tbaa !11
  %34 = load ptr, ptr %13, align 8, !tbaa !83
  %35 = load ptr, ptr %7, align 8, !tbaa !24
  %36 = getelementptr inbounds i8, ptr %35, i64 1
  %37 = load i8, ptr %36, align 1, !tbaa !36
  %38 = zext i8 %37 to i32
  %39 = load ptr, ptr %8, align 8, !tbaa !24
  %40 = getelementptr inbounds i8, ptr %39, i64 1
  %41 = load i8, ptr %40, align 1, !tbaa !36
  %42 = zext i8 %41 to i32
  %43 = sub nsw i32 %38, %42
  %44 = sext i32 %43 to i64
  %45 = getelementptr inbounds i32, ptr %34, i64 %44
  %46 = load i32, ptr %45, align 4, !tbaa !11
  %47 = load i32, ptr %11, align 4, !tbaa !11
  %48 = add i32 %47, %46
  store i32 %48, ptr %11, align 4, !tbaa !11
  %49 = load ptr, ptr %13, align 8, !tbaa !83
  %50 = load ptr, ptr %7, align 8, !tbaa !24
  %51 = getelementptr inbounds i8, ptr %50, i64 2
  %52 = load i8, ptr %51, align 1, !tbaa !36
  %53 = zext i8 %52 to i32
  %54 = load ptr, ptr %8, align 8, !tbaa !24
  %55 = getelementptr inbounds i8, ptr %54, i64 2
  %56 = load i8, ptr %55, align 1, !tbaa !36
  %57 = zext i8 %56 to i32
  %58 = sub nsw i32 %53, %57
  %59 = sext i32 %58 to i64
  %60 = getelementptr inbounds i32, ptr %49, i64 %59
  %61 = load i32, ptr %60, align 4, !tbaa !11
  %62 = load i32, ptr %11, align 4, !tbaa !11
  %63 = add i32 %62, %61
  store i32 %63, ptr %11, align 4, !tbaa !11
  %64 = load ptr, ptr %13, align 8, !tbaa !83
  %65 = load ptr, ptr %7, align 8, !tbaa !24
  %66 = getelementptr inbounds i8, ptr %65, i64 3
  %67 = load i8, ptr %66, align 1, !tbaa !36
  %68 = zext i8 %67 to i32
  %69 = load ptr, ptr %8, align 8, !tbaa !24
  %70 = getelementptr inbounds i8, ptr %69, i64 3
  %71 = load i8, ptr %70, align 1, !tbaa !36
  %72 = zext i8 %71 to i32
  %73 = sub nsw i32 %68, %72
  %74 = sext i32 %73 to i64
  %75 = getelementptr inbounds i32, ptr %64, i64 %74
  %76 = load i32, ptr %75, align 4, !tbaa !11
  %77 = load i32, ptr %11, align 4, !tbaa !11
  %78 = add i32 %77, %76
  store i32 %78, ptr %11, align 4, !tbaa !11
  %79 = load i64, ptr %9, align 8, !tbaa !26
  %80 = load ptr, ptr %7, align 8, !tbaa !24
  %81 = getelementptr inbounds i8, ptr %80, i64 %79
  store ptr %81, ptr %7, align 8, !tbaa !24
  %82 = load i64, ptr %9, align 8, !tbaa !26
  %83 = load ptr, ptr %8, align 8, !tbaa !24
  %84 = getelementptr inbounds i8, ptr %83, i64 %82
  store ptr %84, ptr %8, align 8, !tbaa !24
  br label %85

85:                                               ; preds = %18
  %86 = load i32, ptr %12, align 4, !tbaa !11
  %87 = add nsw i32 %86, 1
  store i32 %87, ptr %12, align 4, !tbaa !11
  br label %14, !llvm.loop !86

88:                                               ; preds = %14
  %89 = load i32, ptr %11, align 4, !tbaa !11
  call void @llvm.lifetime.end.p0(i64 8, ptr %13) #9
  call void @llvm.lifetime.end.p0(i64 4, ptr %12) #9
  call void @llvm.lifetime.end.p0(i64 4, ptr %11) #9
  ret i32 %89
}