; Function Attrs: nofree norecurse nosync nounwind memory(argmem: read) uwtable
define internal i32 @sse4_c(ptr readnone captures(none) %0, ptr noundef readonly captures(none) %1, ptr noundef readonly captures(none) %2, i64 noundef %3, i32 noundef %4) #5 {
  %6 = icmp sgt i32 %4, 0
  br i1 %6, label %.lr.ph, label %._crit_edge

.lr.ph:                                           ; preds = %5, %.lr.ph
  %.029 = phi ptr [ %45, %.lr.ph ], [ %1, %5 ]
  %.02328 = phi i32 [ %47, %.lr.ph ], [ 0, %5 ]
  %.02427 = phi i32 [ %44, %.lr.ph ], [ 0, %5 ]
  %.02526 = phi ptr [ %46, %.lr.ph ], [ %2, %5 ]
  %7 = load i8, ptr %.029, align 1, !tbaa !20
  %8 = zext i8 %7 to i64
  %9 = load i8, ptr %.02526, align 1, !tbaa !20
  %10 = zext i8 %9 to i64
  %11 = sub nsw i64 %8, %10
  %12 = getelementptr inbounds i32, ptr getelementptr inbounds nuw (i8, ptr @ff_square_tab, i64 1024), i64 %11
  %13 = load i32, ptr %12, align 4, !tbaa !29
  %14 = add i32 %13, %.02427
  %15 = getelementptr inbounds nuw i8, ptr %.029, i64 1
  %16 = load i8, ptr %15, align 1, !tbaa !20
  %17 = zext i8 %16 to i64
  %18 = getelementptr inbounds nuw i8, ptr %.02526, i64 1
  %19 = load i8, ptr %18, align 1, !tbaa !20
  %20 = zext i8 %19 to i64
  %21 = sub nsw i64 %17, %20
  %22 = getelementptr inbounds i32, ptr getelementptr inbounds nuw (i8, ptr @ff_square_tab, i64 1024), i64 %21
  %23 = load i32, ptr %22, align 4, !tbaa !29
  %24 = add i32 %14, %23
  %25 = getelementptr inbounds nuw i8, ptr %.029, i64 2
  %26 = load i8, ptr %25, align 1, !tbaa !20
  %27 = zext i8 %26 to i64
  %28 = getelementptr inbounds nuw i8, ptr %.02526, i64 2
  %29 = load i8, ptr %28, align 1, !tbaa !20
  %30 = zext i8 %29 to i64
  %31 = sub nsw i64 %27, %30
  %32 = getelementptr inbounds i32, ptr getelementptr inbounds nuw (i8, ptr @ff_square_tab, i64 1024), i64 %31
  %33 = load i32, ptr %32, align 4, !tbaa !29
  %34 = add i32 %24, %33
  %35 = getelementptr inbounds nuw i8, ptr %.029, i64 3
  %36 = load i8, ptr %35, align 1, !tbaa !20
  %37 = zext i8 %36 to i64
  %38 = getelementptr inbounds nuw i8, ptr %.02526, i64 3
  %39 = load i8, ptr %38, align 1, !tbaa !20
  %40 = zext i8 %39 to i64
  %41 = sub nsw i64 %37, %40
  %42 = getelementptr inbounds i32, ptr getelementptr inbounds nuw (i8, ptr @ff_square_tab, i64 1024), i64 %41
  %43 = load i32, ptr %42, align 4, !tbaa !29
  %44 = add i32 %34, %43
  %45 = getelementptr inbounds i8, ptr %.029, i64 %3
  %46 = getelementptr inbounds i8, ptr %.02526, i64 %3
  %47 = add nuw nsw i32 %.02328, 1
  %exitcond.not = icmp eq i32 %47, %4
  br i1 %exitcond.not, label %._crit_edge, label %.lr.ph, !llvm.loop !76

._crit_edge:                                      ; preds = %.lr.ph, %5
  %.024.lcssa = phi i32 [ 0, %5 ], [ %44, %.lr.ph ]
  ret i32 %.024.lcssa
}